target datalayout = "e-m:e-p270:32:32-p271:32:32-p272:64:64-i64:64-i128:128-f80:128-n8:16:32:64-S128"
target triple = "x86_64-pc-linux-gnu"

%struct.prov_gcm_hw_st = type { ptr, ptr, ptr, ptr, ptr, ptr }

@vaes_gcm = internal constant %struct.prov_gcm_hw_st { ptr @vaes_gcm_setkey, ptr @vaes_gcm_setiv, ptr @vaes_gcm_aadupdate, ptr @vaes_gcm_cipherupdate, ptr @vaes_gcm_cipherfinal, ptr @ossl_gcm_one_shot }, align 8
@OPENSSL_ia32cap_P = external global [0 x i32], align 4
@aesni_gcm = internal constant %struct.prov_gcm_hw_st { ptr @aesni_gcm_initkey, ptr @ossl_gcm_setiv, ptr @ossl_gcm_aad_update, ptr @generic_aes_gcm_cipher_update, ptr @ossl_gcm_cipher_final, ptr @ossl_gcm_one_shot }, align 8
@aes_gcm = internal constant %struct.prov_gcm_hw_st { ptr @aes_gcm_initkey, ptr @ossl_gcm_setiv, ptr @ossl_gcm_aad_update, ptr @generic_aes_gcm_cipher_update, ptr @ossl_gcm_cipher_final, ptr @ossl_gcm_one_shot }, align 8

; Function Attrs: nounwind uwtable
define ptr @ossl_prov_aes_hw_gcm(i64 noundef %0) #0 {
  %2 = alloca ptr, align 8
  %3 = alloca i64, align 8
  store i64 %0, ptr %3, align 8, !tbaa !3
  %4 = call i32 @ossl_vaes_vpclmulqdq_capable()
  %5 = icmp ne i32 %4, 0
  br i1 %5, label %6, label %7

6:                                                ; preds = %1
  store ptr @vaes_gcm, ptr %2, align 8
  br label %13

7:                                                ; preds = %1
  %8 = load i32, ptr getelementptr inbounds ([0 x i32], ptr @OPENSSL_ia32cap_P, i64 0, i64 1), align 4, !tbaa !7
  %9 = and i32 %8, 33554432
  %10 = icmp ne i32 %9, 0
  br i1 %10, label %11, label %12

11:                                               ; preds = %7
  store ptr @aesni_gcm, ptr %2, align 8
  br label %13

12:                                               ; preds = %7
  store ptr @aes_gcm, ptr %2, align 8
  br label %13

13:                                               ; preds = %12, %11, %6
  %14 = load ptr, ptr %2, align 8
  ret ptr %14
}