; Function Attrs: nounwind uwtable
define nonnull ptr @ossl_prov_aes_hw_gcm(i64 noundef %0) local_unnamed_addr #0 {
  %2 = tail call i32 @ossl_vaes_vpclmulqdq_capable() #4
  %.not = icmp eq i32 %2, 0
  br i1 %.not, label %3, label %6

3:                                                ; preds = %1
  %4 = load i32, ptr getelementptr inbounds nuw (i8, ptr @OPENSSL_ia32cap_P, i64 4), align 4, !tbaa !3
  %5 = and i32 %4, 33554432
  %.not1 = icmp eq i32 %5, 0
  %aes_gcm.aesni_gcm = select i1 %.not1, ptr @aes_gcm, ptr @aesni_gcm
  br label %6

6:                                                ; preds = %3, %1
  %.0 = phi ptr [ @vaes_gcm, %1 ], [ %aes_gcm.aesni_gcm, %3 ]
  ret ptr %.0
}